target datalayout = "e-m:e-p270:32:32-p271:32:32-p272:64:64-i64:64-i128:128-f80:128-n8:16:32:64-S128"
target triple = "x86_64-unknown-linux-gnu"

%"class.facebook::velox::common::hll::SparseHll" = type <{ %"class.std::vector", i32, [4 x i8] }>
%"class.std::vector" = type { %"struct.std::_Vector_base" }
%"struct.std::_Vector_base" = type { %"struct.std::_Vector_base<unsigned int, facebook::velox::StlAllocator<unsigned int>>::_Vector_impl" }
%"struct.std::_Vector_base<unsigned int, facebook::velox::StlAllocator<unsigned int>>::_Vector_impl" = type { %"struct.facebook::velox::StlAllocator", %"struct.std::_Vector_base<unsigned int, facebook::velox::StlAllocator<unsigned int>>::_Vector_impl_data" }
%"struct.facebook::velox::StlAllocator" = type { ptr }
%"struct.std::_Vector_base<unsigned int, facebook::velox::StlAllocator<unsigned int>>::_Vector_impl_data" = type { ptr, ptr, ptr }

; Function Attrs: mustprogress nounwind uwtable
define linkonce_odr noundef ptr @_ZNKSt6vectorIjN8facebook5velox12StlAllocatorIjEEE11_M_data_ptrIjEEPT_S7_(ptr noundef nonnull align 8 dereferenceable(32) %this, ptr noundef %__ptr) #1 comdat align 2 {
entry:
  %this.addr = alloca ptr, align 8
  %__ptr.addr = alloca ptr, align 8
  store ptr %this, ptr %this.addr, align 8
  store ptr %__ptr, ptr %__ptr.addr, align 8
  %0 = load ptr, ptr %__ptr.addr, align 8
  ret ptr %0
}

; Function Attrs: mustprogress nounwind uwtable
define linkonce_odr noundef ptr @_ZNKSt6vectorIjN8facebook5velox12StlAllocatorIjEEE4dataEv(ptr noundef nonnull align 8 dereferenceable(32) %this) #1 comdat align 2 {
entry:
  %this.addr = alloca ptr, align 8
  store ptr %this, ptr %this.addr, align 8
  %this1 = load ptr, ptr %this.addr, align 8
  %_M_impl = getelementptr inbounds %"struct.std::_Vector_base", ptr %this1, i32 0, i32 0
  %add.ptr = getelementptr inbounds i8, ptr %_M_impl, i64 8
  %_M_start = getelementptr inbounds %"struct.std::_Vector_base<unsigned int, facebook::velox::StlAllocator<unsigned int>>::_Vector_impl_data", ptr %add.ptr, i32 0, i32 0
  %0 = load ptr, ptr %_M_start, align 8
  %call = call noundef ptr @_ZNKSt6vectorIjN8facebook5velox12StlAllocatorIjEEE11_M_data_ptrIjEEPT_S7_(ptr noundef nonnull align 8 dereferenceable(32) %this1, ptr noundef %0) #11
  ret ptr %call
}

; Function Attrs: mustprogress nounwind uwtable
define linkonce_odr noundef i64 @_ZNKSt6vectorIjN8facebook5velox12StlAllocatorIjEEE4sizeEv(ptr noundef nonnull align 8 dereferenceable(32) %this) #1 comdat align 2 {
entry:
  %this.addr = alloca ptr, align 8
  store ptr %this, ptr %this.addr, align 8
  %this1 = load ptr, ptr %this.addr, align 8
  %_M_impl = getelementptr inbounds %"struct.std::_Vector_base", ptr %this1, i32 0, i32 0
  %add.ptr = getelementptr inbounds i8, ptr %_M_impl, i64 8
  %_M_finish = getelementptr inbounds %"struct.std::_Vector_base<unsigned int, facebook::velox::StlAllocator<unsigned int>>::_Vector_impl_data", ptr %add.ptr, i32 0, i32 1
  %0 = load ptr, ptr %_M_finish, align 8
  %_M_impl2 = getelementptr inbounds %"struct.std::_Vector_base", ptr %this1, i32 0, i32 0
  %add.ptr3 = getelementptr inbounds i8, ptr %_M_impl2, i64 8
  %_M_start = getelementptr inbounds %"struct.std::_Vector_base<unsigned int, facebook::velox::StlAllocator<unsigned int>>::_Vector_impl_data", ptr %add.ptr3, i32 0, i32 0
  %1 = load ptr, ptr %_M_start, align 8
  %sub.ptr.lhs.cast = ptrtoint ptr %0 to i64
  %sub.ptr.rhs.cast = ptrtoint ptr %1 to i64
  %sub.ptr.sub = sub i64 %sub.ptr.lhs.cast, %sub.ptr.rhs.cast
  %sub.ptr.div = sdiv exact i64 %sub.ptr.sub, 4
  ret i64 %sub.ptr.div
}

; Function Attrs: mustprogress uwtable
define void @_ZN8facebook5velox6common3hll9SparseHll9mergeWithERKS3_(ptr noundef nonnull align 8 dereferenceable(36) %this, ptr noundef nonnull align 8 dereferenceable(36) %other) #0 align 2 {
entry:
  %this.addr = alloca ptr, align 8
  %other.addr = alloca ptr, align 8
  %size = alloca i64, align 8
  store ptr %this, ptr %this.addr, align 8
  store ptr %other, ptr %other.addr, align 8
  %this1 = load ptr, ptr %this.addr, align 8
  %0 = load ptr, ptr %other.addr, align 8
  %entries_ = getelementptr inbounds %"class.facebook::velox::common::hll::SparseHll", ptr %0, i32 0, i32 0
  %call = call noundef i64 @_ZNKSt6vectorIjN8facebook5velox12StlAllocatorIjEEE4sizeEv(ptr noundef nonnull align 8 dereferenceable(32) %entries_) #11
  store i64 %call, ptr %size, align 8
  %1 = load i64, ptr %size, align 8
  %tobool = icmp ne i64 %1, 0
  br i1 %tobool, label %if.then, label %if.end

if.then:                                          ; preds = %entry
  %2 = load i64, ptr %size, align 8
  %3 = load ptr, ptr %other.addr, align 8
  %entries_2 = getelementptr inbounds %"class.facebook::velox::common::hll::SparseHll", ptr %3, i32 0, i32 0
  %call3 = call noundef ptr @_ZNKSt6vectorIjN8facebook5velox12StlAllocatorIjEEE4dataEv(ptr noundef nonnull align 8 dereferenceable(32) %entries_2) #11
  call void @_ZN8facebook5velox6common3hll9SparseHll9mergeWithEmPKj(ptr noundef nonnull align 8 dereferenceable(36) %this1, i64 noundef %2, ptr noundef %call3)
  br label %if.end

if.end:                                           ; preds = %if.then, %entry
  ret void
}