; Function Attrs: mustprogress uwtable
define void @_ZN8facebook5velox6common3hll9SparseHll9mergeWithERKS3_(ptr noundef nonnull align 8 dereferenceable(36) %this, ptr noundef nonnull readonly align 8 captures(none) dereferenceable(36) %other) local_unnamed_addr #0 align 2 {
entry:
  %add.ptr.i = getelementptr inbounds nuw i8, ptr %other, i64 8
  %_M_finish.i = getelementptr inbounds nuw i8, ptr %other, i64 16
  %0 = load ptr, ptr %_M_finish.i, align 8
  %1 = load ptr, ptr %add.ptr.i, align 8
  %tobool.not = icmp eq ptr %0, %1
  br i1 %tobool.not, label %if.end, label %if.then

if.then:                                          ; preds = %entry
  %sub.ptr.rhs.cast.i = ptrtoint ptr %1 to i64
  %sub.ptr.lhs.cast.i = ptrtoint ptr %0 to i64
  %sub.ptr.sub.i = sub i64 %sub.ptr.lhs.cast.i, %sub.ptr.rhs.cast.i
  %sub.ptr.div.i = ashr exact i64 %sub.ptr.sub.i, 2
  tail call void @_ZN8facebook5velox6common3hll9SparseHll9mergeWithEmPKj(ptr noundef nonnull align 8 dereferenceable(36) %this, i64 noundef %sub.ptr.div.i, ptr noundef %1)
  br label %if.end

if.end:                                           ; preds = %if.then, %entry
  ret void
}